target datalayout = "e-m:e-p270:32:32-p271:32:32-p272:64:64-i64:64-i128:128-f80:128-n8:16:32:64-S128"
target triple = "x86_64-pc-linux-gnu"

%struct.anon.81 = type { i8 }
%struct.hb_sparseset_t = type { %struct.hb_object_header_t, %struct.hb_bit_set_invertible_t }
%struct.hb_object_header_t = type { %struct.hb_reference_count_t, %struct.hb_atomic_int_t, %struct.hb_atomic_ptr_t }
%struct.hb_reference_count_t = type { %struct.hb_atomic_int_t }
%struct.hb_atomic_int_t = type { i32 }
%struct.hb_atomic_ptr_t = type { ptr }
%struct.hb_bit_set_invertible_t = type <{ %struct.hb_bit_set_t, i8, [7 x i8] }>
%struct.hb_bit_set_t = type { i8, i32, %struct.hb_atomic_int_t, %struct.hb_vector_t, %struct.hb_vector_t.0 }
%struct.hb_vector_t = type { i32, i32, ptr }
%struct.hb_vector_t.0 = type { i32, i32, ptr }

@_ZL14hb_bitwise_xor = internal constant %struct.anon.81 zeroinitializer, align 1

; Function Attrs: mustprogress nounwind uwtable
define internal noundef i32 @"_ZNK4$_18clIiEEDTeofp_fp0_ERKT_S4_"(ptr noundef nonnull align 1 dereferenceable(1) %0, ptr noundef nonnull align 4 dereferenceable(4) %1, ptr noundef nonnull align 4 dereferenceable(4) %2) #3 align 2 {
  %4 = alloca ptr, align 8
  %5 = alloca ptr, align 8
  %6 = alloca ptr, align 8
  store ptr %0, ptr %4, align 8
  store ptr %1, ptr %5, align 8
  store ptr %2, ptr %6, align 8
  %7 = load ptr, ptr %5, align 8
  %8 = load i32, ptr %7, align 4
  %9 = load ptr, ptr %6, align 8
  %10 = load i32, ptr %9, align 4
  %11 = xor i32 %8, %10
  ret i32 %11
}

; Function Attrs: mustprogress uwtable
define internal void @"_ZN12hb_bit_set_t7processI4$_18EEvRKT_RKS_"(ptr noundef nonnull align 8 dereferenceable(48) %0, ptr noundef nonnull align 1 dereferenceable(1) %1, ptr noundef nonnull align 8 dereferenceable(48) %2) #0 align 2 {
  %4 = alloca ptr, align 8
  %5 = alloca ptr, align 8
  %6 = alloca ptr, align 8
  %7 = alloca i32, align 4
  %8 = alloca i32, align 4
  %9 = alloca i32, align 4
  %10 = alloca i32, align 4
  store ptr %0, ptr %4, align 8
  store ptr %1, ptr %5, align 8
  store ptr %2, ptr %6, align 8
  %11 = load ptr, ptr %4, align 8
  %12 = load ptr, ptr %5, align 8
  store i32 1, ptr %7, align 4
  store i32 0, ptr %8, align 4
  %13 = call noundef i32 @"_ZNK4$_18clIiEEDTeofp_fp0_ERKT_S4_"(ptr noundef nonnull align 1 dereferenceable(1) %12, ptr noundef nonnull align 4 dereferenceable(4) %7, ptr noundef nonnull align 4 dereferenceable(4) %8)
  %14 = icmp ne i32 %13, 0
  %15 = load ptr, ptr %5, align 8
  store i32 0, ptr %9, align 4
  store i32 1, ptr %10, align 4
  %16 = call noundef i32 @"_ZNK4$_18clIiEEDTeofp_fp0_ERKT_S4_"(ptr noundef nonnull align 1 dereferenceable(1) %15, ptr noundef nonnull align 4 dereferenceable(4) %9, ptr noundef nonnull align 4 dereferenceable(4) %10)
  %17 = icmp ne i32 %16, 0
  %18 = load ptr, ptr %6, align 8
  call void @_ZN12hb_bit_set_t8process_EPF16hb_vector_size_tIyLj64EERKS1_S3_EbbRKS_(ptr noundef nonnull align 8 dereferenceable(48) %11, ptr noundef @"_ZN12hb_bit_set_t3op_I4$_18EE16hb_vector_size_tIyLj64EERKS3_S5_", i1 noundef zeroext %14, i1 noundef zeroext %17, ptr noundef nonnull align 8 dereferenceable(48) %18)
  ret void
}

; Function Attrs: mustprogress uwtable
define internal void @"_ZN23hb_bit_set_invertible_t7processI4$_18EEvRKT_RKS_"(ptr noundef nonnull align 8 dereferenceable(49) %0, ptr noundef nonnull align 1 dereferenceable(1) %1, ptr noundef nonnull align 8 dereferenceable(49) %2) #0 align 2 {
  %4 = alloca ptr, align 8
  %5 = alloca ptr, align 8
  %6 = alloca ptr, align 8
  store ptr %0, ptr %4, align 8
  store ptr %1, ptr %5, align 8
  store ptr %2, ptr %6, align 8
  %7 = load ptr, ptr %4, align 8
  %8 = getelementptr inbounds %struct.hb_bit_set_invertible_t, ptr %7, i32 0, i32 0
  %9 = load ptr, ptr %5, align 8
  %10 = load ptr, ptr %6, align 8
  %11 = getelementptr inbounds %struct.hb_bit_set_invertible_t, ptr %10, i32 0, i32 0
  call void @"_ZN12hb_bit_set_t7processI4$_18EEvRKT_RKS_"(ptr noundef nonnull align 8 dereferenceable(48) %8, ptr noundef nonnull align 1 dereferenceable(1) %9, ptr noundef nonnull align 8 dereferenceable(48) %11)
  ret void
}

; Function Attrs: mustprogress uwtable
define linkonce_odr hidden void @_ZN23hb_bit_set_invertible_t20symmetric_differenceERKS_(ptr noundef nonnull align 8 dereferenceable(49) %0, ptr noundef nonnull align 8 dereferenceable(49) %1) #0 comdat align 2 {
  %3 = alloca ptr, align 8
  %4 = alloca ptr, align 8
  store ptr %0, ptr %3, align 8
  store ptr %1, ptr %4, align 8
  %5 = load ptr, ptr %3, align 8
  %6 = load ptr, ptr %4, align 8
  call void @"_ZN23hb_bit_set_invertible_t7processI4$_18EEvRKT_RKS_"(ptr noundef nonnull align 8 dereferenceable(49) %5, ptr noundef nonnull align 1 dereferenceable(1) @_ZL14hb_bitwise_xor, ptr noundef nonnull align 8 dereferenceable(49) %6)
  %7 = getelementptr inbounds %struct.hb_bit_set_invertible_t, ptr %5, i32 0, i32 0
  %8 = getelementptr inbounds %struct.hb_bit_set_t, ptr %7, i32 0, i32 0
  %9 = load i8, ptr %8, align 8
  %10 = trunc i8 %9 to i1
  br i1 %10, label %11, label %25

11:                                               ; preds = %2
  %12 = getelementptr inbounds %struct.hb_bit_set_invertible_t, ptr %5, i32 0, i32 1
  %13 = load i8, ptr %12, align 8
  %14 = trunc i8 %13 to i1
  %15 = zext i1 %14 to i32
  %16 = load ptr, ptr %4, align 8
  %17 = getelementptr inbounds %struct.hb_bit_set_invertible_t, ptr %16, i32 0, i32 1
  %18 = load i8, ptr %17, align 8
  %19 = trunc i8 %18 to i1
  %20 = zext i1 %19 to i32
  %21 = xor i32 %15, %20
  %22 = icmp ne i32 %21, 0
  %23 = getelementptr inbounds %struct.hb_bit_set_invertible_t, ptr %5, i32 0, i32 1
  %24 = zext i1 %22 to i8
  store i8 %24, ptr %23, align 8
  br label %25

25:                                               ; preds = %11, %2
  ret void
}

; Function Attrs: mustprogress uwtable
define linkonce_odr hidden void @_ZN14hb_sparseset_tI23hb_bit_set_invertible_tE20symmetric_differenceERKS1_(ptr noundef nonnull align 8 dereferenceable(72) %0, ptr noundef nonnull align 8 dereferenceable(72) %1) #0 comdat align 2 {
  %3 = alloca ptr, align 8
  %4 = alloca ptr, align 8
  store ptr %0, ptr %3, align 8
  store ptr %1, ptr %4, align 8
  %5 = load ptr, ptr %3, align 8
  %6 = getelementptr inbounds %struct.hb_sparseset_t, ptr %5, i32 0, i32 1
  %7 = load ptr, ptr %4, align 8
  %8 = getelementptr inbounds %struct.hb_sparseset_t, ptr %7, i32 0, i32 1
  call void @_ZN23hb_bit_set_invertible_t20symmetric_differenceERKS_(ptr noundef nonnull align 8 dereferenceable(49) %6, ptr noundef nonnull align 8 dereferenceable(49) %8)
  ret void
}

; Function Attrs: mustprogress uwtable
define hidden void @hb_set_symmetric_difference(ptr noundef %0, ptr noundef %1) #0 {
  %3 = alloca ptr, align 8
  %4 = alloca ptr, align 8
  store ptr %0, ptr %3, align 8
  store ptr %1, ptr %4, align 8
  %5 = load ptr, ptr %3, align 8
  %6 = load ptr, ptr %4, align 8
  call void @_ZN14hb_sparseset_tI23hb_bit_set_invertible_tE20symmetric_differenceERKS1_(ptr noundef nonnull align 8 dereferenceable(72) %5, ptr noundef nonnull align 8 dereferenceable(72) %6)
  ret void
}