; Function Attrs: mustprogress uwtable
define hidden void @hb_set_symmetric_difference(ptr noundef %0, ptr noundef %1) local_unnamed_addr #3 {
  %3 = getelementptr inbounds i8, ptr %0, i64 16
  %4 = getelementptr inbounds i8, ptr %1, i64 16
  tail call void @_ZN12hb_bit_set_t8process_EPF16hb_vector_size_tIyLj64EERKS1_S3_EbbRKS_(ptr noundef nonnull align 8 dereferenceable(48) %3, ptr noundef nonnull @"_ZN12hb_bit_set_t3op_I4$_18EE16hb_vector_size_tIyLj64EERKS3_S5_", i1 noundef zeroext true, i1 noundef zeroext true, ptr noundef nonnull align 8 dereferenceable(48) %4)
  %5 = load i8, ptr %3, align 8
  %6 = trunc i8 %5 to i1
  br i1 %6, label %7, label %_ZN14hb_sparseset_tI23hb_bit_set_invertible_tE20symmetric_differenceERKS1_.exit

7:                                                ; preds = %2
  %8 = getelementptr inbounds i8, ptr %0, i64 64
  %9 = load i8, ptr %8, align 8
  %10 = getelementptr inbounds i8, ptr %1, i64 64
  %11 = load i8, ptr %10, align 8
  %12 = xor i8 %11, %9
  %13 = and i8 %12, 1
  store i8 %13, ptr %8, align 8
  br label %_ZN14hb_sparseset_tI23hb_bit_set_invertible_tE20symmetric_differenceERKS1_.exit

_ZN14hb_sparseset_tI23hb_bit_set_invertible_tE20symmetric_differenceERKS1_.exit: ; preds = %2, %7
  ret void
}